target datalayout = "e-m:e-p270:32:32-p271:32:32-p272:64:64-i64:64-i128:128-f80:128-n8:16:32:64-S128"
target triple = "x86_64-pc-linux-gnu"

%struct.variant_info = type { [20 x i8], [64 x i8], [64 x i8], [64 x i8] }

@.str.84 = private unnamed_addr constant [11 x i8] c"BANDWIDTH=\00", align 1
@.str.85 = private unnamed_addr constant [7 x i8] c"AUDIO=\00", align 1
@.str.86 = private unnamed_addr constant [7 x i8] c"VIDEO=\00", align 1
@.str.87 = private unnamed_addr constant [11 x i8] c"SUBTITLES=\00", align 1

; Function Attrs: nounwind uwtable
define internal void @handle_variant_args(ptr noundef %0, ptr noundef %1, i32 noundef %2, ptr noundef %3, ptr noundef %4) #0 {
  %6 = alloca ptr, align 8
  %7 = alloca ptr, align 8
  %8 = alloca i32, align 4
  %9 = alloca ptr, align 8
  %10 = alloca ptr, align 8
  store ptr %0, ptr %6, align 8, !tbaa !241
  store ptr %1, ptr %7, align 8, !tbaa !125
  store i32 %2, ptr %8, align 4, !tbaa !14
  store ptr %3, ptr %9, align 8, !tbaa !243
  store ptr %4, ptr %10, align 8, !tbaa !245
  %11 = load ptr, ptr %7, align 8, !tbaa !125
  %12 = load i32, ptr %8, align 4, !tbaa !14
  %13 = sext i32 %12 to i64
  %14 = call i32 @strncmp(ptr noundef %11, ptr noundef @.str.84, i64 noundef %13) #14
  %15 = icmp ne i32 %14, 0
  br i1 %15, label %22, label %16

16:                                               ; preds = %5
  %17 = load ptr, ptr %6, align 8, !tbaa !241
  %18 = getelementptr inbounds nuw %struct.variant_info, ptr %17, i32 0, i32 0
  %19 = getelementptr inbounds [20 x i8], ptr %18, i64 0, i64 0
  %20 = load ptr, ptr %9, align 8, !tbaa !243
  store ptr %19, ptr %20, align 8, !tbaa !125
  %21 = load ptr, ptr %10, align 8, !tbaa !245
  store i32 20, ptr %21, align 4, !tbaa !14
  br label %61

22:                                               ; preds = %5
  %23 = load ptr, ptr %7, align 8, !tbaa !125
  %24 = load i32, ptr %8, align 4, !tbaa !14
  %25 = sext i32 %24 to i64
  %26 = call i32 @strncmp(ptr noundef %23, ptr noundef @.str.85, i64 noundef %25) #14
  %27 = icmp ne i32 %26, 0
  br i1 %27, label %34, label %28

28:                                               ; preds = %22
  %29 = load ptr, ptr %6, align 8, !tbaa !241
  %30 = getelementptr inbounds nuw %struct.variant_info, ptr %29, i32 0, i32 1
  %31 = getelementptr inbounds [64 x i8], ptr %30, i64 0, i64 0
  %32 = load ptr, ptr %9, align 8, !tbaa !243
  store ptr %31, ptr %32, align 8, !tbaa !125
  %33 = load ptr, ptr %10, align 8, !tbaa !245
  store i32 64, ptr %33, align 4, !tbaa !14
  br label %60

34:                                               ; preds = %22
  %35 = load ptr, ptr %7, align 8, !tbaa !125
  %36 = load i32, ptr %8, align 4, !tbaa !14
  %37 = sext i32 %36 to i64
  %38 = call i32 @strncmp(ptr noundef %35, ptr noundef @.str.86, i64 noundef %37) #14
  %39 = icmp ne i32 %38, 0
  br i1 %39, label %46, label %40

40:                                               ; preds = %34
  %41 = load ptr, ptr %6, align 8, !tbaa !241
  %42 = getelementptr inbounds nuw %struct.variant_info, ptr %41, i32 0, i32 2
  %43 = getelementptr inbounds [64 x i8], ptr %42, i64 0, i64 0
  %44 = load ptr, ptr %9, align 8, !tbaa !243
  store ptr %43, ptr %44, align 8, !tbaa !125
  %45 = load ptr, ptr %10, align 8, !tbaa !245
  store i32 64, ptr %45, align 4, !tbaa !14
  br label %59

46:                                               ; preds = %34
  %47 = load ptr, ptr %7, align 8, !tbaa !125
  %48 = load i32, ptr %8, align 4, !tbaa !14
  %49 = sext i32 %48 to i64
  %50 = call i32 @strncmp(ptr noundef %47, ptr noundef @.str.87, i64 noundef %49) #14
  %51 = icmp ne i32 %50, 0
  br i1 %51, label %58, label %52

52:                                               ; preds = %46
  %53 = load ptr, ptr %6, align 8, !tbaa !241
  %54 = getelementptr inbounds nuw %struct.variant_info, ptr %53, i32 0, i32 3
  %55 = getelementptr inbounds [64 x i8], ptr %54, i64 0, i64 0
  %56 = load ptr, ptr %9, align 8, !tbaa !243
  store ptr %55, ptr %56, align 8, !tbaa !125
  %57 = load ptr, ptr %10, align 8, !tbaa !245
  store i32 64, ptr %57, align 4, !tbaa !14
  br label %58

58:                                               ; preds = %52, %46
  br label %59

59:                                               ; preds = %58, %40
  br label %60

60:                                               ; preds = %59, %28
  br label %61

61:                                               ; preds = %60, %16
  ret void
}