; Function Attrs: mustprogress nofree norecurse nounwind willreturn memory(argmem: readwrite) uwtable
define internal void @handle_variant_args(ptr noundef %0, ptr noundef readonly captures(none) %1, i32 noundef %2, ptr noundef writeonly captures(none) %3, ptr noundef writeonly captures(none) %4) #6 {
  %6 = sext i32 %2 to i64
  %7 = tail call i32 @strncmp(ptr noundef %1, ptr noundef nonnull @.str.84, i64 noundef %6) #15
  %.not = icmp eq i32 %7, 0
  br i1 %.not, label %.sink.split, label %8

8:                                                ; preds = %5
  %9 = tail call i32 @strncmp(ptr noundef %1, ptr noundef nonnull @.str.85, i64 noundef %6) #15
  %.not19 = icmp eq i32 %9, 0
  br i1 %.not19, label %10, label %12

10:                                               ; preds = %8
  %11 = getelementptr inbounds nuw i8, ptr %0, i64 20
  br label %.sink.split

12:                                               ; preds = %8
  %13 = tail call i32 @strncmp(ptr noundef %1, ptr noundef nonnull @.str.86, i64 noundef %6) #15
  %.not20 = icmp eq i32 %13, 0
  br i1 %.not20, label %14, label %16

14:                                               ; preds = %12
  %15 = getelementptr inbounds nuw i8, ptr %0, i64 84
  br label %.sink.split

16:                                               ; preds = %12
  %17 = tail call i32 @strncmp(ptr noundef %1, ptr noundef nonnull @.str.87, i64 noundef %6) #15
  %.not21 = icmp eq i32 %17, 0
  br i1 %.not21, label %18, label %20

18:                                               ; preds = %16
  %19 = getelementptr inbounds nuw i8, ptr %0, i64 148
  br label %.sink.split

.sink.split:                                      ; preds = %5, %14, %18, %10
  %.sink22 = phi ptr [ %11, %10 ], [ %19, %18 ], [ %15, %14 ], [ %0, %5 ]
  %.sink = phi i32 [ 64, %10 ], [ 64, %18 ], [ 64, %14 ], [ 20, %5 ]
  store ptr %.sink22, ptr %3, align 8, !tbaa !223
  store i32 %.sink, ptr %4, align 4, !tbaa !168
  br label %20

20:                                               ; preds = %.sink.split, %16
  ret void
}